; Function Attrs: nounwind uwtable
define ptr @Abc_NtkMiterQuantifyPis(ptr noundef %0) local_unnamed_addr #0 {
  %2 = getelementptr i8, ptr %0, i64 40
  %.09.val11 = load ptr, ptr %2, align 8, !tbaa !53
  %3 = getelementptr i8, ptr %.09.val11, i64 4
  %.09.val.val12 = load i32, ptr %3, align 4, !tbaa !26
  %4 = icmp sgt i32 %.09.val.val12, 0
  br i1 %4, label %.lr.ph, label %.critedge

.lr.ph:                                           ; preds = %1, %13
  %indvars.iv = phi i64 [ %indvars.iv.next, %13 ], [ 0, %1 ]
  %.09.val15 = phi ptr [ %.09.val, %13 ], [ %.09.val11, %1 ]
  %.0913 = phi ptr [ %.1, %13 ], [ %0, %1 ]
  %5 = getelementptr i8, ptr %.09.val15, i64 8
  %.09.val10.val = load ptr, ptr %5, align 8, !tbaa !28
  %6 = getelementptr inbounds nuw ptr, ptr %.09.val10.val, i64 %indvars.iv
  %7 = load ptr, ptr %6, align 8, !tbaa !29
  %8 = getelementptr i8, ptr %7, i64 44
  %.val = load i32, ptr %8, align 4, !tbaa !64
  %9 = icmp eq i32 %.val, 0
  br i1 %9, label %13, label %10

10:                                               ; preds = %.lr.ph
  %11 = trunc nuw nsw i64 %indvars.iv to i32
  %12 = tail call ptr @Abc_NtkMiterQuantify(ptr noundef nonnull %.0913, i32 noundef %11, i32 noundef 1)
  tail call void @Abc_NtkDelete(ptr noundef nonnull %.0913) #16
  br label %13

13:                                               ; preds = %.lr.ph, %10
  %.1 = phi ptr [ %.0913, %.lr.ph ], [ %12, %10 ]
  %indvars.iv.next = add nuw nsw i64 %indvars.iv, 1
  %14 = getelementptr i8, ptr %.1, i64 40
  %.09.val = load ptr, ptr %14, align 8, !tbaa !53
  %15 = getelementptr i8, ptr %.09.val, i64 4
  %.09.val.val = load i32, ptr %15, align 4, !tbaa !26
  %16 = sext i32 %.09.val.val to i64
  %17 = icmp slt i64 %indvars.iv.next, %16
  br i1 %17, label %.lr.ph, label %.critedge, !llvm.loop !65

.critedge:                                        ; preds = %13, %1
  %.09.lcssa = phi ptr [ %0, %1 ], [ %.1, %13 ]
  ret ptr %.09.lcssa
}